target datalayout = "e-m:e-p270:32:32-p271:32:32-p272:64:64-i64:64-i128:128-f80:128-n8:16:32:64-S128"
target triple = "x86_64-pc-linux-gnu"

%"class.clang::SourceLocation" = type { i32 }
%"class.clang::QualType" = type { %"class.llvm::PointerIntPair" }
%"class.llvm::PointerIntPair" = type { %"struct.llvm::detail::PunnedPointer" }
%"struct.llvm::detail::PunnedPointer" = type { [8 x i8] }
%"class.clang::SourceRange" = type { %"class.clang::SourceLocation", %"class.clang::SourceLocation" }
%"class.clang::Expr" = type { %"class.clang::ValueStmt", %"class.clang::QualType" }
%"class.clang::ValueStmt" = type { %"class.clang::Stmt" }
%"class.clang::Stmt" = type { %union.anon }
%union.anon = type { %"class.clang::Stmt::PseudoObjectExprBitfields" }
%"class.clang::Stmt::PseudoObjectExprBitfields" = type { i64 }
%"struct.llvm::detail::PunnedPointer.1125" = type { [8 x i8] }
%"class.clang::CXXTypeidExpr" = type { %"class.clang::Expr", %"class.llvm::PointerUnion.2035", %"class.clang::SourceRange" }
%"class.llvm::PointerUnion.2035" = type { %"class.llvm::pointer_union_detail::PointerUnionMembers.2036" }
%"class.llvm::pointer_union_detail::PointerUnionMembers.2036" = type { %"class.llvm::pointer_union_detail::PointerUnionMembers.2037" }
%"class.llvm::pointer_union_detail::PointerUnionMembers.2037" = type { %"class.llvm::pointer_union_detail::PointerUnionMembers.2038" }
%"class.llvm::pointer_union_detail::PointerUnionMembers.2038" = type { %"class.llvm::PointerIntPair.2039" }
%"class.llvm::PointerIntPair.2039" = type { %"struct.llvm::detail::PunnedPointer.1125" }

; Function Attrs: mustprogress nounwind uwtable
define linkonce_odr hidden noundef ptr @_ZN4llvm20pointer_union_detail22PointerUnionUIntTraitsIJPN5clang4StmtEPNS2_14TypeSourceInfoEEE18getFromVoidPointerEPv(ptr noundef %0) #0 comdat align 2 {
  %2 = alloca ptr, align 8
  store ptr %0, ptr %2, align 8
  %3 = load ptr, ptr %2, align 8
  ret ptr %3
}

; Function Attrs: mustprogress nounwind uwtable
define linkonce_odr hidden noundef i64 @_ZNK4llvm6detail13PunnedPointerIPvE5asIntEv(ptr noundef nonnull align 8 dereferenceable(8) %0) #0 comdat align 2 {
  %2 = alloca ptr, align 8
  %3 = alloca i64, align 8
  store ptr %0, ptr %2, align 8
  %4 = load ptr, ptr %2, align 8
  store i64 0, ptr %3, align 8
  %5 = getelementptr inbounds nuw %"struct.llvm::detail::PunnedPointer.1125", ptr %4, i32 0, i32 0
  %6 = getelementptr inbounds [8 x i8], ptr %5, i64 0, i64 0
  call void @llvm.memcpy.p0.p0.i64(ptr align 8 %3, ptr align 8 %6, i64 8, i1 false)
  %7 = load i64, ptr %3, align 8
  ret i64 %7
}

; Function Attrs: mustprogress nounwind uwtable
define linkonce_odr hidden noundef ptr @_ZN4llvm18PointerIntPairInfoIPvLj1ENS_20pointer_union_detail22PointerUnionUIntTraitsIJPN5clang4StmtEPNS4_14TypeSourceInfoEEEEE10getPointerEl(i64 noundef %0) #0 comdat align 2 {
  %2 = alloca i64, align 8
  store i64 %0, ptr %2, align 8
  %3 = load i64, ptr %2, align 8
  %4 = and i64 %3, -8
  %5 = inttoptr i64 %4 to ptr
  %6 = call noundef ptr @_ZN4llvm20pointer_union_detail22PointerUnionUIntTraitsIJPN5clang4StmtEPNS2_14TypeSourceInfoEEE18getFromVoidPointerEPv(ptr noundef %5)
  ret ptr %6
}

; Function Attrs: mustprogress nounwind uwtable
define linkonce_odr hidden noundef i64 @_ZNK4llvm6detail13PunnedPointerIPvEcvlEv(ptr noundef nonnull align 8 dereferenceable(8) %0) #0 comdat align 2 {
  %2 = alloca ptr, align 8
  store ptr %0, ptr %2, align 8
  %3 = load ptr, ptr %2, align 8
  %4 = call noundef i64 @_ZNK4llvm6detail13PunnedPointerIPvE5asIntEv(ptr noundef nonnull align 8 dereferenceable(8) %3)
  ret i64 %4
}

; Function Attrs: mustprogress nounwind uwtable
define linkonce_odr hidden noundef ptr @_ZN4llvm21PointerLikeTypeTraitsIPN5clang4StmtEE18getFromVoidPointerEPv(ptr noundef %0) #0 comdat align 2 {
  %2 = alloca ptr, align 8
  store ptr %0, ptr %2, align 8
  %3 = load ptr, ptr %2, align 8
  ret ptr %3
}

; Function Attrs: mustprogress nounwind uwtable
define linkonce_odr hidden noundef ptr @_ZNK4llvm14PointerIntPairIPvLj1EiNS_20pointer_union_detail22PointerUnionUIntTraitsIJPN5clang4StmtEPNS4_14TypeSourceInfoEEEENS_18PointerIntPairInfoIS1_Lj1ES9_EEE10getPointerEv(ptr noundef nonnull align 8 dereferenceable(8) %0) #0 comdat align 2 {
  %2 = alloca ptr, align 8
  store ptr %0, ptr %2, align 8
  %3 = load ptr, ptr %2, align 8
  %4 = getelementptr inbounds nuw %"class.llvm::PointerIntPair.2039", ptr %3, i32 0, i32 0
  %5 = call noundef i64 @_ZNK4llvm6detail13PunnedPointerIPvEcvlEv(ptr noundef nonnull align 8 dereferenceable(8) %4)
  %6 = call noundef ptr @_ZN4llvm18PointerIntPairInfoIPvLj1ENS_20pointer_union_detail22PointerUnionUIntTraitsIJPN5clang4StmtEPNS4_14TypeSourceInfoEEEEE10getPointerEl(i64 noundef %5)
  ret ptr %6
}

; Function Attrs: mustprogress nounwind uwtable
define linkonce_odr hidden noundef ptr @_ZN4llvm24CastInfoPointerUnionImplIJPN5clang4StmtEPNS1_14TypeSourceInfoEEE6doCastIS3_EET_RNS_12PointerUnionIJS3_S5_EEE(ptr noundef nonnull align 8 dereferenceable(8) %0) #0 comdat align 2 {
  %2 = alloca ptr, align 8
  store ptr %0, ptr %2, align 8
  %3 = load ptr, ptr %2, align 8
  %4 = getelementptr inbounds nuw %"class.llvm::pointer_union_detail::PointerUnionMembers.2038", ptr %3, i32 0, i32 0
  %5 = call noundef ptr @_ZNK4llvm14PointerIntPairIPvLj1EiNS_20pointer_union_detail22PointerUnionUIntTraitsIJPN5clang4StmtEPNS4_14TypeSourceInfoEEEENS_18PointerIntPairInfoIS1_Lj1ES9_EEE10getPointerEv(ptr noundef nonnull align 8 dereferenceable(8) %4)
  %6 = call noundef ptr @_ZN4llvm21PointerLikeTypeTraitsIPN5clang4StmtEE18getFromVoidPointerEPv(ptr noundef %5)
  ret ptr %6
}

; Function Attrs: mustprogress nounwind uwtable
define linkonce_odr hidden noundef ptr @_ZN4llvm8CastInfoIPN5clang4StmtENS_12PointerUnionIJS3_PNS1_14TypeSourceInfoEEEEvE6doCastERS7_(ptr noundef nonnull align 8 dereferenceable(8) %0) #0 comdat align 2 {
  %2 = alloca ptr, align 8
  store ptr %0, ptr %2, align 8
  %3 = load ptr, ptr %2, align 8
  %4 = call noundef ptr @_ZN4llvm24CastInfoPointerUnionImplIJPN5clang4StmtEPNS1_14TypeSourceInfoEEE6doCastIS3_EET_RNS_12PointerUnionIJS3_S5_EEE(ptr noundef nonnull align 8 dereferenceable(8) %3)
  ret ptr %4
}

; Function Attrs: mustprogress nounwind uwtable
define linkonce_odr hidden noundef ptr @_ZN4llvm28ConstStrippingForwardingCastIPN5clang4StmtEKNS_12PointerUnionIJS3_PNS1_14TypeSourceInfoEEEENS_8CastInfoIS3_S7_vEEE6doCastERS8_(ptr noundef nonnull align 8 dereferenceable(8) %0) #0 comdat align 2 {
  %2 = alloca ptr, align 8
  store ptr %0, ptr %2, align 8
  %3 = load ptr, ptr %2, align 8
  %4 = call noundef ptr @_ZN4llvm8CastInfoIPN5clang4StmtENS_12PointerUnionIJS3_PNS1_14TypeSourceInfoEEEEvE6doCastERS7_(ptr noundef nonnull align 8 dereferenceable(8) %3)
  ret ptr %4
}

; Function Attrs: mustprogress nounwind uwtable
define linkonce_odr hidden noundef ptr @_ZN4llvm4castIPN5clang4StmtENS_12PointerUnionIJS3_PNS1_14TypeSourceInfoEEEEEEDcRKT0_(ptr noundef nonnull align 8 dereferenceable(8) %0) #0 comdat {
  %2 = alloca ptr, align 8
  store ptr %0, ptr %2, align 8
  %3 = load ptr, ptr %2, align 8
  %4 = call noundef ptr @_ZN4llvm28ConstStrippingForwardingCastIPN5clang4StmtEKNS_12PointerUnionIJS3_PNS1_14TypeSourceInfoEEEENS_8CastInfoIS3_S7_vEEE6doCastERS8_(ptr noundef nonnull align 8 dereferenceable(8) %3)
  ret ptr %4
}

; Function Attrs: mustprogress nounwind uwtable
define linkonce_odr hidden noundef ptr @_ZNK4llvm12PointerUnionIJPN5clang4StmtEPNS1_14TypeSourceInfoEEE3getIS3_EET_v(ptr noundef nonnull align 8 dereferenceable(8) %0) #0 comdat align 2 {
  %2 = alloca ptr, align 8
  store ptr %0, ptr %2, align 8
  %3 = load ptr, ptr %2, align 8
  %4 = call noundef ptr @_ZN4llvm4castIPN5clang4StmtENS_12PointerUnionIJS3_PNS1_14TypeSourceInfoEEEEEEDcRKT0_(ptr noundef nonnull align 8 dereferenceable(8) %3)
  ret ptr %4
}

; Function Attrs: mustprogress nounwind uwtable
define linkonce_odr hidden noundef ptr @_ZNK5clang13CXXTypeidExpr14getExprOperandEv(ptr noundef nonnull align 8 dereferenceable(32) %0) #0 comdat align 2 {
  %2 = alloca ptr, align 8
  store ptr %0, ptr %2, align 8
  %3 = load ptr, ptr %2, align 8
  %4 = getelementptr inbounds nuw %"class.clang::CXXTypeidExpr", ptr %3, i32 0, i32 1
  %5 = call noundef ptr @_ZNK4llvm12PointerUnionIJPN5clang4StmtEPNS1_14TypeSourceInfoEEE3getIS3_EET_v(ptr noundef nonnull align 8 dereferenceable(8) %4)
  ret ptr %5
}

; Function Attrs: mustprogress nounwind uwtable
define internal void @_ZN5clang24EvaluatedExprVisitorBaseIN4llvm14make_const_ptrEN12_GLOBAL__N_115SequenceCheckerEE18VisitCXXTypeidExprEPKNS_13CXXTypeidExprE(ptr noundef nonnull align 8 dereferenceable(8) %0, ptr noundef %1) #0 align 2 {
  %3 = alloca ptr, align 8
  %4 = alloca ptr, align 8
  store ptr %0, ptr %3, align 8
  store ptr %1, ptr %4, align 8
  %5 = load ptr, ptr %3, align 8
  %6 = load ptr, ptr %4, align 8
  %7 = call noundef zeroext i1 @_ZNK5clang13CXXTypeidExpr22isPotentiallyEvaluatedEv(ptr noundef nonnull align 8 dereferenceable(32) %6)
  br i1 %7, label %8, label %11

8:                                                ; preds = %2
  %9 = load ptr, ptr %4, align 8
  %10 = call noundef ptr @_ZNK5clang13CXXTypeidExpr14getExprOperandEv(ptr noundef nonnull align 8 dereferenceable(32) %9)
  call void @_ZN5clang15StmtVisitorBaseIN4llvm14make_const_ptrEN12_GLOBAL__N_115SequenceCheckerEvJEE5VisitEPKNS_4StmtE(ptr noundef nonnull align 1 dereferenceable(1) %5, ptr noundef %10)
  br label %11

11:                                               ; preds = %8, %2
  ret void
}